target datalayout = "e-m:e-p270:32:32-p271:32:32-p272:64:64-i64:64-i128:128-f80:128-n8:16:32:64-S128"
target triple = "x86_64-pc-linux-gnu"

%struct.LZ4IO_prefs_s = type { i32, i32, i32, i32, i64, i32, i32, i32, i32, i32, i32, i32, ptr, i32, i32 }

@g_displayLevel = internal global i32 0, align 4
@stderr = external global ptr, align 8
@.str = private unnamed_addr constant [12 x i8] c"Error %i : \00", align 1
@.str.1 = private unnamed_addr constant [38 x i8] c"Can't even allocate LZ4IO preferences\00", align 1
@.str.2 = private unnamed_addr constant [3 x i8] c" \0A\00", align 1

; Function Attrs: nounwind uwtable
define dso_local i32 @LZ4IO_defaultNbWorkers() #0 {
  ret i32 1
}

; Function Attrs: nounwind uwtable
define dso_local ptr @LZ4IO_defaultPreferences() #0 {
  %1 = alloca ptr, align 8
  call void @llvm.lifetime.start.p0(i64 8, ptr %1) #13
  %2 = call noalias ptr @malloc(i64 noundef 72) #14
  store ptr %2, ptr %1, align 8, !tbaa !4
  %3 = load ptr, ptr %1, align 8, !tbaa !4
  %4 = icmp ne ptr %3, null
  br i1 %4, label %43, label %5

5:                                                ; preds = %0
  %6 = load i32, ptr @g_displayLevel, align 4, !tbaa !9
  %7 = icmp sge i32 %6, 1
  br i1 %7, label %8, label %17

8:                                                ; preds = %5
  %9 = load ptr, ptr @stderr, align 8, !tbaa !11
  %10 = call i32 (ptr, ptr, ...) @fprintf(ptr noundef %9, ptr noundef @.str, i32 noundef 11) #13
  %11 = load i32, ptr @g_displayLevel, align 4, !tbaa !9
  %12 = icmp sge i32 %11, 4
  br i1 %12, label %13, label %16

13:                                               ; preds = %8
  %14 = load ptr, ptr @stderr, align 8, !tbaa !11
  %15 = call i32 @fflush(ptr noundef %14)
  br label %16

16:                                               ; preds = %13, %8
  br label %17

17:                                               ; preds = %16, %5
  %18 = load i32, ptr @g_displayLevel, align 4, !tbaa !9
  %19 = icmp sge i32 %18, 1
  br i1 %19, label %20, label %29

20:                                               ; preds = %17
  %21 = load ptr, ptr @stderr, align 8, !tbaa !11
  %22 = call i32 (ptr, ptr, ...) @fprintf(ptr noundef %21, ptr noundef @.str.1) #13
  %23 = load i32, ptr @g_displayLevel, align 4, !tbaa !9
  %24 = icmp sge i32 %23, 4
  br i1 %24, label %25, label %28

25:                                               ; preds = %20
  %26 = load ptr, ptr @stderr, align 8, !tbaa !11
  %27 = call i32 @fflush(ptr noundef %26)
  br label %28

28:                                               ; preds = %25, %20
  br label %29

29:                                               ; preds = %28, %17
  %30 = load i32, ptr @g_displayLevel, align 4, !tbaa !9
  %31 = icmp sge i32 %30, 1
  br i1 %31, label %32, label %41

32:                                               ; preds = %29
  %33 = load ptr, ptr @stderr, align 8, !tbaa !11
  %34 = call i32 (ptr, ptr, ...) @fprintf(ptr noundef %33, ptr noundef @.str.2) #13
  %35 = load i32, ptr @g_displayLevel, align 4, !tbaa !9
  %36 = icmp sge i32 %35, 4
  br i1 %36, label %37, label %40

37:                                               ; preds = %32
  %38 = load ptr, ptr @stderr, align 8, !tbaa !11
  %39 = call i32 @fflush(ptr noundef %38)
  br label %40

40:                                               ; preds = %37, %32
  br label %41

41:                                               ; preds = %40, %29
  %42 = call i32 @fflush(ptr noundef null)
  call void @exit(i32 noundef 11) #15
  unreachable

43:                                               ; preds = %0
  %44 = load ptr, ptr %1, align 8, !tbaa !4
  %45 = getelementptr inbounds nuw %struct.LZ4IO_prefs_s, ptr %44, i32 0, i32 0
  store i32 0, ptr %45, align 8, !tbaa !13
  %46 = load ptr, ptr %1, align 8, !tbaa !4
  %47 = getelementptr inbounds nuw %struct.LZ4IO_prefs_s, ptr %46, i32 0, i32 1
  store i32 1, ptr %47, align 4, !tbaa !17
  %48 = load ptr, ptr %1, align 8, !tbaa !4
  %49 = getelementptr inbounds nuw %struct.LZ4IO_prefs_s, ptr %48, i32 0, i32 2
  store i32 0, ptr %49, align 8, !tbaa !18
  %50 = load ptr, ptr %1, align 8, !tbaa !4
  %51 = getelementptr inbounds nuw %struct.LZ4IO_prefs_s, ptr %50, i32 0, i32 3
  store i32 7, ptr %51, align 4, !tbaa !19
  %52 = load ptr, ptr %1, align 8, !tbaa !4
  %53 = getelementptr inbounds nuw %struct.LZ4IO_prefs_s, ptr %52, i32 0, i32 4
  store i64 0, ptr %53, align 8, !tbaa !20
  %54 = load ptr, ptr %1, align 8, !tbaa !4
  %55 = getelementptr inbounds nuw %struct.LZ4IO_prefs_s, ptr %54, i32 0, i32 5
  store i32 0, ptr %55, align 8, !tbaa !21
  %56 = load ptr, ptr %1, align 8, !tbaa !4
  %57 = getelementptr inbounds nuw %struct.LZ4IO_prefs_s, ptr %56, i32 0, i32 6
  store i32 1, ptr %57, align 4, !tbaa !22
  %58 = load ptr, ptr %1, align 8, !tbaa !4
  %59 = getelementptr inbounds nuw %struct.LZ4IO_prefs_s, ptr %58, i32 0, i32 7
  store i32 1, ptr %59, align 8, !tbaa !23
  %60 = load ptr, ptr %1, align 8, !tbaa !4
  %61 = getelementptr inbounds nuw %struct.LZ4IO_prefs_s, ptr %60, i32 0, i32 8
  store i32 1, ptr %61, align 4, !tbaa !24
  %62 = load ptr, ptr %1, align 8, !tbaa !4
  %63 = getelementptr inbounds nuw %struct.LZ4IO_prefs_s, ptr %62, i32 0, i32 9
  store i32 0, ptr %63, align 8, !tbaa !25
  %64 = load ptr, ptr %1, align 8, !tbaa !4
  %65 = getelementptr inbounds nuw %struct.LZ4IO_prefs_s, ptr %64, i32 0, i32 10
  store i32 0, ptr %65, align 4, !tbaa !26
  %66 = load ptr, ptr %1, align 8, !tbaa !4
  %67 = getelementptr inbounds nuw %struct.LZ4IO_prefs_s, ptr %66, i32 0, i32 11
  store i32 0, ptr %67, align 8, !tbaa !27
  %68 = load ptr, ptr %1, align 8, !tbaa !4
  %69 = getelementptr inbounds nuw %struct.LZ4IO_prefs_s, ptr %68, i32 0, i32 12
  store ptr null, ptr %69, align 8, !tbaa !28
  %70 = load ptr, ptr %1, align 8, !tbaa !4
  %71 = getelementptr inbounds nuw %struct.LZ4IO_prefs_s, ptr %70, i32 0, i32 13
  store i32 0, ptr %71, align 8, !tbaa !29
  %72 = call i32 @LZ4IO_defaultNbWorkers()
  %73 = load ptr, ptr %1, align 8, !tbaa !4
  %74 = getelementptr inbounds nuw %struct.LZ4IO_prefs_s, ptr %73, i32 0, i32 14
  store i32 %72, ptr %74, align 4, !tbaa !30
  %75 = load ptr, ptr %1, align 8, !tbaa !4
  call void @llvm.lifetime.end.p0(i64 8, ptr %1) #13
  ret ptr %75
}