; Function Attrs: nofree nounwind uwtable
define dso_local noalias nonnull ptr @LZ4IO_defaultPreferences() local_unnamed_addr #3 {
  %1 = tail call noalias dereferenceable_or_null(72) ptr @malloc(i64 noundef 72) #25
  %.not = icmp eq ptr %1, null
  br i1 %.not, label %2, label %35

2:                                                ; preds = %0
  %3 = load i32, ptr @g_displayLevel, align 4, !tbaa !4
  %4 = icmp sgt i32 %3, 0
  br i1 %4, label %5, label %.thread18

5:                                                ; preds = %2
  %6 = load ptr, ptr @stderr, align 8, !tbaa !8
  %7 = tail call i32 (ptr, ptr, ...) @fprintf(ptr noundef %6, ptr noundef nonnull @.str, i32 noundef 11) #26
  %8 = load i32, ptr @g_displayLevel, align 4, !tbaa !4
  %9 = icmp sgt i32 %8, 3
  br i1 %9, label %10, label %13

10:                                               ; preds = %5
  %11 = load ptr, ptr @stderr, align 8, !tbaa !8
  %12 = tail call i32 @fflush(ptr noundef %11)
  %.pr = load i32, ptr @g_displayLevel, align 4, !tbaa !4
  br label %13

13:                                               ; preds = %5, %10
  %14 = phi i32 [ %8, %5 ], [ %.pr, %10 ]
  %15 = icmp sgt i32 %14, 0
  br i1 %15, label %16, label %.thread18

16:                                               ; preds = %13
  %17 = load ptr, ptr @stderr, align 8, !tbaa !8
  %18 = tail call i64 @fwrite(ptr nonnull @.str.1, i64 37, i64 1, ptr %17) #27
  %19 = load i32, ptr @g_displayLevel, align 4, !tbaa !4
  %20 = icmp sgt i32 %19, 3
  br i1 %20, label %21, label %thread-pre-split

21:                                               ; preds = %16
  %22 = load ptr, ptr @stderr, align 8, !tbaa !8
  %23 = tail call i32 @fflush(ptr noundef %22)
  %.pr17.pre = load i32, ptr @g_displayLevel, align 4, !tbaa !4
  br label %thread-pre-split

thread-pre-split:                                 ; preds = %21, %16
  %24 = phi i32 [ %19, %16 ], [ %.pr17.pre, %21 ]
  %25 = icmp sgt i32 %24, 0
  br i1 %25, label %26, label %.thread18

26:                                               ; preds = %thread-pre-split
  %27 = load ptr, ptr @stderr, align 8, !tbaa !8
  %28 = tail call i64 @fwrite(ptr nonnull @.str.2, i64 2, i64 1, ptr %27) #27
  %29 = load i32, ptr @g_displayLevel, align 4, !tbaa !4
  %30 = icmp sgt i32 %29, 3
  br i1 %30, label %31, label %.thread18

31:                                               ; preds = %26
  %32 = load ptr, ptr @stderr, align 8, !tbaa !8
  %33 = tail call i32 @fflush(ptr noundef %32)
  br label %.thread18

.thread18:                                        ; preds = %13, %2, %26, %31, %thread-pre-split
  %34 = tail call i32 @fflush(ptr noundef null)
  tail call void @exit(i32 noundef 11) #28
  unreachable

35:                                               ; preds = %0
  store i32 0, ptr %1, align 8, !tbaa !11
  %36 = getelementptr inbounds nuw i8, ptr %1, i64 4
  store i32 1, ptr %36, align 4, !tbaa !15
  %37 = getelementptr inbounds nuw i8, ptr %1, i64 8
  store i32 0, ptr %37, align 8, !tbaa !16
  %38 = getelementptr inbounds nuw i8, ptr %1, i64 12
  store i32 7, ptr %38, align 4, !tbaa !17
  %39 = getelementptr inbounds nuw i8, ptr %1, i64 16
  store i64 0, ptr %39, align 8, !tbaa !18
  %40 = getelementptr inbounds nuw i8, ptr %1, i64 24
  store i32 0, ptr %40, align 8, !tbaa !19
  %41 = getelementptr inbounds nuw i8, ptr %1, i64 28
  store i32 1, ptr %41, align 4, !tbaa !20
  %42 = getelementptr inbounds nuw i8, ptr %1, i64 32
  store i32 1, ptr %42, align 8, !tbaa !21
  %43 = getelementptr inbounds nuw i8, ptr %1, i64 36
  store i32 1, ptr %43, align 4, !tbaa !22
  %44 = getelementptr inbounds nuw i8, ptr %1, i64 40
  store i32 0, ptr %44, align 8, !tbaa !23
  %45 = getelementptr inbounds nuw i8, ptr %1, i64 44
  store i32 0, ptr %45, align 4, !tbaa !24
  %46 = getelementptr inbounds nuw i8, ptr %1, i64 48
  store i32 0, ptr %46, align 8, !tbaa !25
  %47 = getelementptr inbounds nuw i8, ptr %1, i64 56
  store ptr null, ptr %47, align 8, !tbaa !26
  %48 = getelementptr inbounds nuw i8, ptr %1, i64 64
  store i32 0, ptr %48, align 8, !tbaa !27
  %49 = getelementptr inbounds nuw i8, ptr %1, i64 68
  store i32 1, ptr %49, align 4, !tbaa !28
  ret ptr %1
}